target datalayout = "e-m:e-p270:32:32-p271:32:32-p272:64:64-i64:64-i128:128-f80:128-n8:16:32:64-S128"
target triple = "x86_64-pc-linux-gnu"

%union.pthread_mutex_t = type { %struct.__pthread_mutex_s }
%struct.__pthread_mutex_s = type { i32, i32, i32, i32, i32, i16, i16, %struct.__pthread_internal_list }
%struct.__pthread_internal_list = type { ptr, ptr }

@conf_mutex = internal global %union.pthread_mutex_t zeroinitializer, align 8
@.str.5 = private unnamed_addr constant [29 x i8] c"%s: pthread_mutex_lock(): %m\00", align 1
@.str.8 = private unnamed_addr constant [31 x i8] c"%s: pthread_mutex_unlock(): %m\00", align 1
@__func__._process_tbl = private unnamed_addr constant [13 x i8] c"_process_tbl\00", align 1

; Function Attrs: nounwind uwtable
define internal i32 @_process_tbl(ptr noundef %0) #0 {
  %2 = alloca ptr, align 8
  %3 = alloca i32, align 4
  %4 = alloca i32, align 4
  %5 = alloca i32, align 4
  store ptr %0, ptr %2, align 8
  call void @llvm.lifetime.start.p0(i64 4, ptr %3) #6
  store i32 0, ptr %3, align 4
  br label %6

6:                                                ; preds = %1
  call void @llvm.lifetime.start.p0(i64 4, ptr %4) #6
  %7 = call i32 @pthread_mutex_lock(ptr noundef @conf_mutex) #6
  store i32 %7, ptr %4, align 4
  %8 = load i32, ptr %4, align 4
  %9 = icmp ne i32 %8, 0
  br i1 %9, label %10, label %13

10:                                               ; preds = %6
  %11 = load i32, ptr %4, align 4
  %12 = call ptr @__errno_location() #8
  store i32 %11, ptr %12, align 4
  call void (ptr, ...) @fatal_abort(ptr noundef @.str.5, ptr noundef @__func__._process_tbl) #7
  unreachable

13:                                               ; preds = %6
  call void @llvm.lifetime.end.p0(i64 4, ptr %4) #6
  br label %14

14:                                               ; preds = %13
  br label %15

15:                                               ; preds = %14
  %16 = load ptr, ptr %2, align 8
  %17 = call i32 @acct_gather_energy_g_conf_set(ptr noundef %16)
  %18 = load i32, ptr %3, align 4
  %19 = add nsw i32 %18, %17
  store i32 %19, ptr %3, align 4
  %20 = load ptr, ptr %2, align 8
  %21 = call i32 @acct_gather_profile_g_conf_set(ptr noundef %20)
  %22 = load i32, ptr %3, align 4
  %23 = add nsw i32 %22, %21
  store i32 %23, ptr %3, align 4
  %24 = load ptr, ptr %2, align 8
  %25 = call i32 @acct_gather_interconnect_g_conf_set(ptr noundef %24)
  %26 = load i32, ptr %3, align 4
  %27 = add nsw i32 %26, %25
  store i32 %27, ptr %3, align 4
  %28 = load ptr, ptr %2, align 8
  %29 = call i32 @acct_gather_filesystem_g_conf_set(ptr noundef %28)
  %30 = load i32, ptr %3, align 4
  %31 = add nsw i32 %30, %29
  store i32 %31, ptr %3, align 4
  br label %32

32:                                               ; preds = %15
  call void @llvm.lifetime.start.p0(i64 4, ptr %5) #6
  %33 = call i32 @pthread_mutex_unlock(ptr noundef @conf_mutex) #6
  store i32 %33, ptr %5, align 4
  %34 = load i32, ptr %5, align 4
  %35 = icmp ne i32 %34, 0
  br i1 %35, label %36, label %39

36:                                               ; preds = %32
  %37 = load i32, ptr %5, align 4
  %38 = call ptr @__errno_location() #8
  store i32 %37, ptr %38, align 4
  call void (ptr, ...) @fatal_abort(ptr noundef @.str.8, ptr noundef @__func__._process_tbl) #7
  unreachable

39:                                               ; preds = %32
  call void @llvm.lifetime.end.p0(i64 4, ptr %5) #6
  br label %40

40:                                               ; preds = %39
  br label %41

41:                                               ; preds = %40
  %42 = load i32, ptr %3, align 4
  call void @llvm.lifetime.end.p0(i64 4, ptr %3) #6
  ret i32 %42
}