; Function Attrs: nounwind uwtable
define internal fastcc i32 @_process_tbl(ptr noundef %0) unnamed_addr #0 {
  %2 = tail call i32 @pthread_mutex_lock(ptr noundef nonnull @conf_mutex) #9
  %.not = icmp eq i32 %2, 0
  br i1 %.not, label %5, label %3

3:                                                ; preds = %1
  %4 = tail call ptr @__errno_location() #11
  store i32 %2, ptr %4, align 4
  tail call void (ptr, ...) @fatal_abort(ptr noundef nonnull @.str.5, ptr noundef nonnull @__func__._process_tbl) #10
  unreachable

5:                                                ; preds = %1
  %6 = tail call i32 @acct_gather_energy_g_conf_set(ptr noundef %0) #9
  %7 = tail call i32 @acct_gather_profile_g_conf_set(ptr noundef %0) #9
  %8 = tail call i32 @acct_gather_interconnect_g_conf_set(ptr noundef %0) #9
  %9 = tail call i32 @acct_gather_filesystem_g_conf_set(ptr noundef %0) #9
  %10 = tail call i32 @pthread_mutex_unlock(ptr noundef nonnull @conf_mutex) #9
  %.not13 = icmp eq i32 %10, 0
  br i1 %.not13, label %13, label %11

11:                                               ; preds = %5
  %12 = tail call ptr @__errno_location() #11
  store i32 %10, ptr %12, align 4
  tail call void (ptr, ...) @fatal_abort(ptr noundef nonnull @.str.8, ptr noundef nonnull @__func__._process_tbl) #10
  unreachable

13:                                               ; preds = %5
  %14 = add nsw i32 %7, %6
  %15 = add nsw i32 %14, %8
  %16 = add nsw i32 %15, %9
  ret i32 %16
}